target datalayout = "e-m:e-p270:32:32-p271:32:32-p272:64:64-i64:64-i128:128-f80:128-n8:16:32:64-S128"
target triple = "x86_64-pc-linux-gnu"

%struct.cbs_st = type { ptr, i64 }

; Function Attrs: nounwind uwtable
define hidden i32 @CBS_strdup(ptr noundef %0, ptr noundef %1) #0 {
  %3 = alloca ptr, align 8
  %4 = alloca ptr, align 8
  store ptr %0, ptr %3, align 8, !tbaa !6
  store ptr %1, ptr %4, align 8, !tbaa !18
  %5 = load ptr, ptr %4, align 8, !tbaa !18
  %6 = load ptr, ptr %5, align 8, !tbaa !11
  %7 = icmp ne ptr %6, null
  br i1 %7, label %8, label %11

8:                                                ; preds = %2
  %9 = load ptr, ptr %4, align 8, !tbaa !18
  %10 = load ptr, ptr %9, align 8, !tbaa !11
  call void @free(ptr noundef %10) #6
  br label %11

11:                                               ; preds = %8, %2
  %12 = load ptr, ptr %3, align 8, !tbaa !6
  %13 = getelementptr inbounds nuw %struct.cbs_st, ptr %12, i32 0, i32 0
  %14 = load ptr, ptr %13, align 8, !tbaa !15
  %15 = load ptr, ptr %3, align 8, !tbaa !6
  %16 = getelementptr inbounds nuw %struct.cbs_st, ptr %15, i32 0, i32 1
  %17 = load i64, ptr %16, align 8, !tbaa !17
  %18 = call ptr @BUF_strndup(ptr noundef %14, i64 noundef %17)
  %19 = load ptr, ptr %4, align 8, !tbaa !18
  store ptr %18, ptr %19, align 8, !tbaa !11
  %20 = load ptr, ptr %4, align 8, !tbaa !18
  %21 = load ptr, ptr %20, align 8, !tbaa !11
  %22 = icmp ne ptr %21, null
  %23 = zext i1 %22 to i32
  ret i32 %23
}