; Function Attrs: nounwind uwtable
define hidden range(i32 0, 2) i32 @CBS_strdup(ptr noundef readonly captures(none) %0, ptr noundef captures(none) %1) local_unnamed_addr #4 {
  %3 = load ptr, ptr %1, align 8, !tbaa !14
  %.not = icmp eq ptr %3, null
  br i1 %.not, label %5, label %4

4:                                                ; preds = %2
  tail call void @free(ptr noundef nonnull %3) #15
  br label %5

5:                                                ; preds = %4, %2
  %6 = load ptr, ptr %0, align 8, !tbaa !6
  %7 = getelementptr inbounds nuw i8, ptr %0, i64 8
  %8 = load i64, ptr %7, align 8, !tbaa !13
  %9 = tail call ptr @BUF_strndup(ptr noundef %6, i64 noundef %8) #15
  store ptr %9, ptr %1, align 8, !tbaa !14
  %10 = icmp ne ptr %9, null
  %11 = zext i1 %10 to i32
  ret i32 %11
}